target datalayout = "e-m:e-p270:32:32-p271:32:32-p272:64:64-i64:64-i128:128-f80:128-n8:16:32:64-S128"
target triple = "x86_64-pc-linux-gnu"

%struct.Vec_Wrd_t_ = type { i32, i32, ptr }

; Function Attrs: inlinehint nounwind uwtable
define internal void @Vec_WrdShrink(ptr noundef %0, i32 noundef %1) #4 {
  %3 = alloca ptr, align 8
  %4 = alloca i32, align 4
  store ptr %0, ptr %3, align 8, !tbaa !66
  store i32 %1, ptr %4, align 4, !tbaa !9
  %5 = load i32, ptr %4, align 4, !tbaa !9
  %6 = load ptr, ptr %3, align 8, !tbaa !66
  %7 = getelementptr inbounds nuw %struct.Vec_Wrd_t_, ptr %6, i32 0, i32 1
  store i32 %5, ptr %7, align 4, !tbaa !71
  ret void
}

; Function Attrs: inlinehint nounwind uwtable
define internal void @Abc_TtCopy(ptr noundef %0, ptr noundef %1, i32 noundef %2, i32 noundef %3) #4 {
  %5 = alloca ptr, align 8
  %6 = alloca ptr, align 8
  %7 = alloca i32, align 4
  %8 = alloca i32, align 4
  %9 = alloca i32, align 4
  store ptr %0, ptr %5, align 8, !tbaa !12
  store ptr %1, ptr %6, align 8, !tbaa !12
  store i32 %2, ptr %7, align 4, !tbaa !9
  store i32 %3, ptr %8, align 4, !tbaa !9
  call void @llvm.lifetime.start.p0(i64 4, ptr %9) #13
  %10 = load i32, ptr %8, align 4, !tbaa !9
  %11 = icmp ne i32 %10, 0
  br i1 %11, label %12, label %32

12:                                               ; preds = %4
  store i32 0, ptr %9, align 4, !tbaa !9
  br label %13

13:                                               ; preds = %28, %12
  %14 = load i32, ptr %9, align 4, !tbaa !9
  %15 = load i32, ptr %7, align 4, !tbaa !9
  %16 = icmp slt i32 %14, %15
  br i1 %16, label %17, label %31

17:                                               ; preds = %13
  %18 = load ptr, ptr %6, align 8, !tbaa !12
  %19 = load i32, ptr %9, align 4, !tbaa !9
  %20 = sext i32 %19 to i64
  %21 = getelementptr inbounds i64, ptr %18, i64 %20
  %22 = load i64, ptr %21, align 8, !tbaa !33
  %23 = xor i64 %22, -1
  %24 = load ptr, ptr %5, align 8, !tbaa !12
  %25 = load i32, ptr %9, align 4, !tbaa !9
  %26 = sext i32 %25 to i64
  %27 = getelementptr inbounds i64, ptr %24, i64 %26
  store i64 %23, ptr %27, align 8, !tbaa !33
  br label %28

28:                                               ; preds = %17
  %29 = load i32, ptr %9, align 4, !tbaa !9
  %30 = add nsw i32 %29, 1
  store i32 %30, ptr %9, align 4, !tbaa !9
  br label %13, !llvm.loop !49

31:                                               ; preds = %13
  br label %51

32:                                               ; preds = %4
  store i32 0, ptr %9, align 4, !tbaa !9
  br label %33

33:                                               ; preds = %47, %32
  %34 = load i32, ptr %9, align 4, !tbaa !9
  %35 = load i32, ptr %7, align 4, !tbaa !9
  %36 = icmp slt i32 %34, %35
  br i1 %36, label %37, label %50

37:                                               ; preds = %33
  %38 = load ptr, ptr %6, align 8, !tbaa !12
  %39 = load i32, ptr %9, align 4, !tbaa !9
  %40 = sext i32 %39 to i64
  %41 = getelementptr inbounds i64, ptr %38, i64 %40
  %42 = load i64, ptr %41, align 8, !tbaa !33
  %43 = load ptr, ptr %5, align 8, !tbaa !12
  %44 = load i32, ptr %9, align 4, !tbaa !9
  %45 = sext i32 %44 to i64
  %46 = getelementptr inbounds i64, ptr %43, i64 %45
  store i64 %42, ptr %46, align 8, !tbaa !33
  br label %47

47:                                               ; preds = %37
  %48 = load i32, ptr %9, align 4, !tbaa !9
  %49 = add nsw i32 %48, 1
  store i32 %49, ptr %9, align 4, !tbaa !9
  br label %33, !llvm.loop !50

50:                                               ; preds = %33
  br label %51

51:                                               ; preds = %50, %31
  call void @llvm.lifetime.end.p0(i64 4, ptr %9) #13
  ret void
}

; Function Attrs: inlinehint nounwind uwtable
define internal ptr @Vec_WrdArray(ptr noundef %0) #4 {
  %2 = alloca ptr, align 8
  store ptr %0, ptr %2, align 8, !tbaa !66
  %3 = load ptr, ptr %2, align 8, !tbaa !66
  %4 = getelementptr inbounds nuw %struct.Vec_Wrd_t_, ptr %3, i32 0, i32 2
  %5 = load ptr, ptr %4, align 8, !tbaa !74
  ret ptr %5
}

; Function Attrs: inlinehint nounwind uwtable
define internal void @Vec_WrdFill(ptr noundef %0, i32 noundef %1, i64 noundef %2) #4 {
  %4 = alloca ptr, align 8
  %5 = alloca i32, align 4
  %6 = alloca i64, align 8
  %7 = alloca i32, align 4
  store ptr %0, ptr %4, align 8, !tbaa !66
  store i32 %1, ptr %5, align 4, !tbaa !9
  store i64 %2, ptr %6, align 8, !tbaa !33
  call void @llvm.lifetime.start.p0(i64 4, ptr %7) #13
  %8 = load ptr, ptr %4, align 8, !tbaa !66
  %9 = load i32, ptr %5, align 4, !tbaa !9
  call void @Vec_WrdGrow(ptr noundef %8, i32 noundef %9)
  store i32 0, ptr %7, align 4, !tbaa !9
  br label %10

10:                                               ; preds = %22, %3
  %11 = load i32, ptr %7, align 4, !tbaa !9
  %12 = load i32, ptr %5, align 4, !tbaa !9
  %13 = icmp slt i32 %11, %12
  br i1 %13, label %14, label %25

14:                                               ; preds = %10
  %15 = load i64, ptr %6, align 8, !tbaa !33
  %16 = load ptr, ptr %4, align 8, !tbaa !66
  %17 = getelementptr inbounds nuw %struct.Vec_Wrd_t_, ptr %16, i32 0, i32 2
  %18 = load ptr, ptr %17, align 8, !tbaa !74
  %19 = load i32, ptr %7, align 4, !tbaa !9
  %20 = sext i32 %19 to i64
  %21 = getelementptr inbounds i64, ptr %18, i64 %20
  store i64 %15, ptr %21, align 8, !tbaa !33
  br label %22

22:                                               ; preds = %14
  %23 = load i32, ptr %7, align 4, !tbaa !9
  %24 = add nsw i32 %23, 1
  store i32 %24, ptr %7, align 4, !tbaa !9
  br label %10, !llvm.loop !90

25:                                               ; preds = %10
  %26 = load i32, ptr %5, align 4, !tbaa !9
  %27 = load ptr, ptr %4, align 8, !tbaa !66
  %28 = getelementptr inbounds nuw %struct.Vec_Wrd_t_, ptr %27, i32 0, i32 1
  store i32 %26, ptr %28, align 4, !tbaa !71
  call void @llvm.lifetime.end.p0(i64 4, ptr %7) #13
  ret void
}

; Function Attrs: inlinehint nounwind uwtable
define internal void @Vec_WrdGrow(ptr noundef %0, i32 noundef %1) #4 {
  %3 = alloca ptr, align 8
  %4 = alloca i32, align 4
  store ptr %0, ptr %3, align 8, !tbaa !66
  store i32 %1, ptr %4, align 4, !tbaa !9
  %5 = load ptr, ptr %3, align 8, !tbaa !66
  %6 = getelementptr inbounds nuw %struct.Vec_Wrd_t_, ptr %5, i32 0, i32 0
  %7 = load i32, ptr %6, align 8, !tbaa !73
  %8 = load i32, ptr %4, align 4, !tbaa !9
  %9 = icmp sge i32 %7, %8
  br i1 %9, label %10, label %11

10:                                               ; preds = %2
  br label %36

11:                                               ; preds = %2
  %12 = load ptr, ptr %3, align 8, !tbaa !66
  %13 = getelementptr inbounds nuw %struct.Vec_Wrd_t_, ptr %12, i32 0, i32 2
  %14 = load ptr, ptr %13, align 8, !tbaa !74
  %15 = icmp ne ptr %14, null
  br i1 %15, label %16, label %24

16:                                               ; preds = %11
  %17 = load ptr, ptr %3, align 8, !tbaa !66
  %18 = getelementptr inbounds nuw %struct.Vec_Wrd_t_, ptr %17, i32 0, i32 2
  %19 = load ptr, ptr %18, align 8, !tbaa !74
  %20 = load i32, ptr %4, align 4, !tbaa !9
  %21 = sext i32 %20 to i64
  %22 = mul i64 8, %21
  %23 = call ptr @realloc(ptr noundef %19, i64 noundef %22) #16
  br label %29

24:                                               ; preds = %11
  %25 = load i32, ptr %4, align 4, !tbaa !9
  %26 = sext i32 %25 to i64
  %27 = mul i64 8, %26
  %28 = call noalias ptr @malloc(i64 noundef %27) #15
  br label %29

29:                                               ; preds = %24, %16
  %30 = phi ptr [ %23, %16 ], [ %28, %24 ]
  %31 = load ptr, ptr %3, align 8, !tbaa !66
  %32 = getelementptr inbounds nuw %struct.Vec_Wrd_t_, ptr %31, i32 0, i32 2
  store ptr %30, ptr %32, align 8, !tbaa !74
  %33 = load i32, ptr %4, align 4, !tbaa !9
  %34 = load ptr, ptr %3, align 8, !tbaa !66
  %35 = getelementptr inbounds nuw %struct.Vec_Wrd_t_, ptr %34, i32 0, i32 0
  store i32 %33, ptr %35, align 8, !tbaa !73
  br label %36

36:                                               ; preds = %29, %10
  ret void
}

; Function Attrs: inlinehint nounwind uwtable
define internal void @Vec_WrdClear(ptr noundef %0) #4 {
  %2 = alloca ptr, align 8
  store ptr %0, ptr %2, align 8, !tbaa !66
  %3 = load ptr, ptr %2, align 8, !tbaa !66
  %4 = getelementptr inbounds nuw %struct.Vec_Wrd_t_, ptr %3, i32 0, i32 1
  store i32 0, ptr %4, align 4, !tbaa !71
  ret void
}

; Function Attrs: inlinehint nounwind uwtable
define internal i32 @Abc_TtWordNum(i32 noundef %0) #4 {
  %2 = alloca i32, align 4
  store i32 %0, ptr %2, align 4, !tbaa !9
  %3 = load i32, ptr %2, align 4, !tbaa !9
  %4 = icmp sle i32 %3, 6
  br i1 %4, label %5, label %6

5:                                                ; preds = %1
  br label %10

6:                                                ; preds = %1
  %7 = load i32, ptr %2, align 4, !tbaa !9
  %8 = sub nsw i32 %7, 6
  %9 = shl i32 1, %8
  br label %10

10:                                               ; preds = %6, %5
  %11 = phi i32 [ 1, %5 ], [ %9, %6 ]
  ret i32 %11
}

; Function Attrs: nounwind uwtable
define ptr @Abc_TtMin(ptr noundef %0, ptr noundef %1, i32 noundef %2, ptr noundef %3, ptr noundef %4, ptr noundef %5) #0 {
  %7 = alloca ptr, align 8
  %8 = alloca ptr, align 8
  %9 = alloca ptr, align 8
  %10 = alloca i32, align 4
  %11 = alloca ptr, align 8
  %12 = alloca ptr, align 8
  %13 = alloca ptr, align 8
  %14 = alloca ptr, align 8
  %15 = alloca i32, align 4
  %16 = alloca i32, align 4
  %17 = alloca i32, align 4
  store ptr %0, ptr %8, align 8, !tbaa !12
  store ptr %1, ptr %9, align 8, !tbaa !12
  store i32 %2, ptr %10, align 4, !tbaa !9
  store ptr %3, ptr %11, align 8, !tbaa !66
  store ptr %4, ptr %12, align 8, !tbaa !66
  store ptr %5, ptr %13, align 8, !tbaa !68
  call void @llvm.lifetime.start.p0(i64 8, ptr %14) #13
  call void @llvm.lifetime.start.p0(i64 4, ptr %15) #13
  call void @llvm.lifetime.start.p0(i64 4, ptr %16) #13
  %18 = load i32, ptr %10, align 4, !tbaa !9
  %19 = call i32 @Abc_TtWordNum(i32 noundef %18)
  store i32 %19, ptr %16, align 4, !tbaa !9
  %20 = load i32, ptr %10, align 4, !tbaa !9
  store i32 %20, ptr %15, align 4, !tbaa !9
  br label %21

21:                                               ; preds = %25, %6
  %22 = load i32, ptr %15, align 4, !tbaa !9
  %23 = icmp slt i32 %22, 6
  br i1 %23, label %24, label %28

24:                                               ; preds = %21
  br label %25

25:                                               ; preds = %24
  %26 = load i32, ptr %15, align 4, !tbaa !9
  %27 = add nsw i32 %26, 1
  store i32 %27, ptr %15, align 4, !tbaa !9
  br label %21, !llvm.loop !89

28:                                               ; preds = %21
  %29 = load ptr, ptr %11, align 8, !tbaa !66
  call void @Vec_WrdClear(ptr noundef %29)
  %30 = load ptr, ptr %11, align 8, !tbaa !66
  call void @Vec_WrdGrow(ptr noundef %30, i32 noundef 1048576)
  %31 = load ptr, ptr %8, align 8, !tbaa !12
  %32 = load ptr, ptr %9, align 8, !tbaa !12
  %33 = load i32, ptr %10, align 4, !tbaa !9
  %34 = load ptr, ptr %11, align 8, !tbaa !66
  %35 = load ptr, ptr %12, align 8, !tbaa !66
  %36 = load ptr, ptr %13, align 8, !tbaa !68
  %37 = call ptr @Abc_TtMin_rec(ptr noundef %31, ptr noundef %32, i32 noundef %33, ptr noundef %34, ptr noundef %35, ptr noundef %36)
  store ptr %37, ptr %14, align 8, !tbaa !12
  %38 = load ptr, ptr %14, align 8, !tbaa !12
  %39 = icmp eq ptr %38, null
  br i1 %39, label %40, label %45

40:                                               ; preds = %28
  %41 = load ptr, ptr %11, align 8, !tbaa !66
  %42 = load i32, ptr %16, align 4, !tbaa !9
  call void @Vec_WrdFill(ptr noundef %41, i32 noundef %42, i64 noundef 0)
  %43 = load ptr, ptr %11, align 8, !tbaa !66
  %44 = call ptr @Vec_WrdArray(ptr noundef %43)
  store ptr %44, ptr %7, align 8
  store i32 1, ptr %17, align 4
  br label %54

45:                                               ; preds = %28
  %46 = load ptr, ptr %11, align 8, !tbaa !66
  %47 = call ptr @Vec_WrdArray(ptr noundef %46)
  %48 = load ptr, ptr %14, align 8, !tbaa !12
  %49 = load i32, ptr %16, align 4, !tbaa !9
  call void @Abc_TtCopy(ptr noundef %47, ptr noundef %48, i32 noundef %49, i32 noundef 0)
  %50 = load ptr, ptr %11, align 8, !tbaa !66
  %51 = load i32, ptr %16, align 4, !tbaa !9
  call void @Vec_WrdShrink(ptr noundef %50, i32 noundef %51)
  %52 = load ptr, ptr %11, align 8, !tbaa !66
  %53 = call ptr @Vec_WrdArray(ptr noundef %52)
  store ptr %53, ptr %7, align 8
  store i32 1, ptr %17, align 4
  br label %54

54:                                               ; preds = %45, %40
  call void @llvm.lifetime.end.p0(i64 4, ptr %16) #13
  call void @llvm.lifetime.end.p0(i64 4, ptr %15) #13
  call void @llvm.lifetime.end.p0(i64 8, ptr %14) #13
  %55 = load ptr, ptr %7, align 8
  ret ptr %55
}