; Function Attrs: nounwind uwtable
define ptr @Abc_TtMin(ptr noundef %0, ptr noundef %1, i32 noundef %2, ptr noundef initializes((4, 8)) %3, ptr noundef %4, ptr noundef %5) local_unnamed_addr #0 {
  %7 = add nsw i32 %2, -6
  %8 = shl nuw i32 1, %7
  %9 = icmp slt i32 %2, 7
  %10 = select i1 %9, i32 1, i32 %8
  %11 = getelementptr inbounds nuw i8, ptr %3, i64 4
  store i32 0, ptr %11, align 4, !tbaa !61
  %12 = load i32, ptr %3, align 8, !tbaa !63
  %.not.i = icmp slt i32 %12, 1048576
  br i1 %.not.i, label %13, label %Vec_WrdGrow.exit

13:                                               ; preds = %6
  %14 = getelementptr inbounds nuw i8, ptr %3, i64 8
  %15 = load ptr, ptr %14, align 8, !tbaa !64
  %.not9.i = icmp eq ptr %15, null
  br i1 %.not9.i, label %18, label %16

16:                                               ; preds = %13
  %17 = tail call dereferenceable_or_null(8388608) ptr @realloc(ptr noundef nonnull %15, i64 noundef 8388608) #23
  br label %20

18:                                               ; preds = %13
  %19 = tail call noalias dereferenceable_or_null(8388608) ptr @malloc(i64 noundef 8388608) #22
  br label %20

20:                                               ; preds = %18, %16
  %21 = phi ptr [ %17, %16 ], [ %19, %18 ]
  store ptr %21, ptr %14, align 8, !tbaa !64
  store i32 1048576, ptr %3, align 8, !tbaa !63
  br label %Vec_WrdGrow.exit

Vec_WrdGrow.exit:                                 ; preds = %6, %20
  %22 = tail call ptr @Abc_TtMin_rec(ptr noundef %0, ptr noundef %1, i32 noundef %2, ptr noundef nonnull %3, ptr noundef %4, ptr noundef %5)
  %23 = icmp eq ptr %22, null
  br i1 %23, label %24, label %41

24:                                               ; preds = %Vec_WrdGrow.exit
  %25 = load i32, ptr %3, align 8, !tbaa !63
  %.not.i.i = icmp slt i32 %25, %10
  br i1 %.not.i.i, label %26, label %Vec_WrdGrow.exit.i

26:                                               ; preds = %24
  %27 = getelementptr inbounds nuw i8, ptr %3, i64 8
  %28 = load ptr, ptr %27, align 8, !tbaa !64
  %.not9.i.i = icmp eq ptr %28, null
  %29 = zext nneg i32 %10 to i64
  %30 = shl nuw nsw i64 %29, 3
  br i1 %.not9.i.i, label %33, label %31

31:                                               ; preds = %26
  %32 = tail call ptr @realloc(ptr noundef nonnull %28, i64 noundef %30) #23
  br label %Vec_WrdGrow.exit.i.thread

33:                                               ; preds = %26
  %34 = tail call noalias ptr @malloc(i64 noundef %30) #22
  br label %Vec_WrdGrow.exit.i.thread

Vec_WrdGrow.exit.i.thread:                        ; preds = %31, %33
  %35 = phi ptr [ %32, %31 ], [ %34, %33 ]
  store ptr %35, ptr %27, align 8, !tbaa !64
  store i32 %10, ptr %3, align 8, !tbaa !63
  br label %.lr.ph.i

Vec_WrdGrow.exit.i:                               ; preds = %24
  %36 = icmp sgt i32 %10, 0
  br i1 %36, label %.lr.ph.i, label %Vec_WrdGrow.exit.i.Vec_WrdFill.exit_crit_edge

Vec_WrdGrow.exit.i.Vec_WrdFill.exit_crit_edge:    ; preds = %Vec_WrdGrow.exit.i
  %.phi.trans.insert = getelementptr i8, ptr %3, i64 8
  %.val25.pre = load ptr, ptr %.phi.trans.insert, align 8, !tbaa !64
  br label %Vec_WrdFill.exit

.lr.ph.i:                                         ; preds = %Vec_WrdGrow.exit.i.thread, %Vec_WrdGrow.exit.i
  %37 = getelementptr inbounds nuw i8, ptr %3, i64 8
  %38 = load ptr, ptr %37, align 8, !tbaa !64
  %39 = zext nneg i32 %10 to i64
  %40 = shl nuw nsw i64 %39, 3
  tail call void @llvm.memset.p0.i64(ptr noundef nonnull align 8 dereferenceable(1) %38, i8 0, i64 %40, i1 false), !tbaa !16
  br label %Vec_WrdFill.exit

41:                                               ; preds = %Vec_WrdGrow.exit
  %42 = getelementptr i8, ptr %3, i64 8
  %.val24 = load ptr, ptr %42, align 8, !tbaa !64
  %43 = icmp sgt i32 %10, 0
  br i1 %43, label %.lr.ph18.preheader.i, label %Vec_WrdFill.exit

.lr.ph18.preheader.i:                             ; preds = %41
  %wide.trip.count24.i = zext nneg i32 %10 to i64
  br label %.lr.ph18.i

.lr.ph18.i:                                       ; preds = %.lr.ph18.i, %.lr.ph18.preheader.i
  %indvars.iv21.i = phi i64 [ 0, %.lr.ph18.preheader.i ], [ %indvars.iv.next22.i, %.lr.ph18.i ]
  %44 = getelementptr inbounds nuw i64, ptr %22, i64 %indvars.iv21.i
  %45 = load i64, ptr %44, align 8, !tbaa !16
  %46 = getelementptr inbounds nuw i64, ptr %.val24, i64 %indvars.iv21.i
  store i64 %45, ptr %46, align 8, !tbaa !16
  %indvars.iv.next22.i = add nuw nsw i64 %indvars.iv21.i, 1
  %exitcond25.not.i = icmp eq i64 %indvars.iv.next22.i, %wide.trip.count24.i
  br i1 %exitcond25.not.i, label %Vec_WrdFill.exit, label %.lr.ph18.i, !llvm.loop !43

Vec_WrdFill.exit:                                 ; preds = %.lr.ph18.i, %41, %.lr.ph.i, %Vec_WrdGrow.exit.i.Vec_WrdFill.exit_crit_edge
  %.0 = phi ptr [ %.val25.pre, %Vec_WrdGrow.exit.i.Vec_WrdFill.exit_crit_edge ], [ %38, %.lr.ph.i ], [ %.val24, %41 ], [ %.val24, %.lr.ph18.i ]
  store i32 %10, ptr %11, align 4, !tbaa !61
  ret ptr %.0
}